(lp0
I0
aF0.1
aF0.2
aF0.30000000000000004
aF0.4
aF0.5
aF0.6
aF0.7
aF0.7999999999999999
aF0.8999999999999999
aF0.9999999999999999
aF1.0999999999999999
aF1.2
aF1.3
aF1.4000000000000001
aF1.5000000000000002
aF1.6000000000000003
aF1.7000000000000004
aF1.8000000000000005
aF1.9000000000000006
aF2.0000000000000004
aF2.1000000000000005
aF2.2000000000000006
aF2.3000000000000007
aF2.400000000000001
aF2.500000000000001
aF2.600000000000001
aF2.700000000000001
aF2.800000000000001
aF2.9000000000000012
aF3.0000000000000013
aF3.1000000000000014
aF3.2000000000000015
aF3.3000000000000016
aF3.4000000000000017
aF3.5000000000000018
aF3.600000000000002
aF3.700000000000002
aF3.800000000000002
aF3.900000000000002
aF4.000000000000002
aF4.100000000000001
aF4.200000000000001
aF4.300000000000001
aF4.4
aF4.5
aF4.6
aF4.699999999999999
aF4.799999999999999
aF4.899999999999999
aF4.999999999999998
aF5.099999999999998
aF5.1999999999999975
aF5.299999999999997
aF5.399999999999997
aF5.4999999999999964
aF5.599999999999996
aF5.699999999999996
aF5.799999999999995
aF5.899999999999995
aF5.999999999999995
aF6.099999999999994
aF6.199999999999994
aF6.299999999999994
aF6.399999999999993
aF6.499999999999993
aF6.5999999999999925
aF6.699999999999992
aF6.799999999999992
aF6.8999999999999915
aF6.999999999999991
aF7.099999999999991
aF7.19999999999999
aF7.29999999999999
aF7.39999999999999
aF7.499999999999989
aF7.599999999999989
aF7.699999999999989
aF7.799999999999988
aF7.899999999999988
aF7.999999999999988
aF8.099999999999987
aF8.199999999999987
aF8.299999999999986
aF8.399999999999986
aF8.499999999999986
aF8.599999999999985
aF8.699999999999985
aF8.799999999999985
aF8.899999999999984
aF8.999999999999984
aF9.099999999999984
aF9.199999999999983
aF9.299999999999983
aF9.399999999999983
aF9.499999999999982
aF9.599999999999982
aF9.699999999999982
aF9.799999999999981
aF9.89999999999998
aF9.99999999999998
aF10.09999999999998
aF10.19999999999998
aF10.29999999999998
aF10.399999999999979
aF10.499999999999979
aF10.599999999999978
aF10.699999999999978
aF10.799999999999978
aF10.899999999999977
aF10.999999999999977
aF11.099999999999977
aF11.199999999999976
aF11.299999999999976
aF11.399999999999975
aF11.499999999999975
aF11.599999999999975
aF11.699999999999974
aF11.799999999999974
aF11.899999999999974
aF11.999999999999973
aF12.099999999999973
aF12.199999999999973
aF12.299999999999972
aF12.399999999999972
aF12.499999999999972
aF12.599999999999971
aF12.69999999999997
aF12.79999999999997
aF12.89999999999997
aF12.99999999999997
aF13.09999999999997
aF13.199999999999969
aF13.299999999999969
aF13.399999999999968
aF13.499999999999968
aF13.599999999999968
aF13.699999999999967
aF13.799999999999967
aF13.899999999999967
aF13.999999999999966
aF14.099999999999966
aF14.199999999999966
aF14.299999999999965
aF14.399999999999965
aF14.499999999999964
aF14.599999999999964
aF14.699999999999964
aF14.799999999999963
aF14.899999999999963
aF14.999999999999963
aF15.099999999999962
aF15.199999999999962
aF15.299999999999962
aF15.399999999999961
aF15.499999999999961
aF15.59999999999996
aF15.69999999999996
aF15.79999999999996
aF15.89999999999996
aF15.99999999999996
aF16.09999999999996
aF16.19999999999996
aF16.29999999999996
aF16.399999999999963
aF16.499999999999964
aF16.599999999999966
aF16.699999999999967
aF16.79999999999997
aF16.89999999999997
aF16.99999999999997
aF17.099999999999973
aF17.199999999999974
aF17.299999999999976
aF17.399999999999977
aF17.49999999999998
aF17.59999999999998
aF17.69999999999998
aF17.799999999999983
aF17.899999999999984
aF17.999999999999986
aF18.099999999999987
aF18.19999999999999
aF18.29999999999999
aF18.39999999999999
aF18.499999999999993
aF18.599999999999994
aF18.699999999999996
aF18.799999999999997
aF18.9
aF19.0
aF19.1
aF19.200000000000003
aF19.300000000000004
aF19.400000000000006
aF19.500000000000007
aF19.60000000000001
aF19.70000000000001
aF19.80000000000001
aF19.900000000000013
aF20.000000000000014
aF20.100000000000016
aF20.200000000000017
aF20.30000000000002
aF20.40000000000002
aF20.50000000000002
aF20.600000000000023
aF20.700000000000024
aF20.800000000000026
aF20.900000000000027
aF21.00000000000003
aF21.10000000000003
aF21.20000000000003
aF21.300000000000033
aF21.400000000000034
aF21.500000000000036
aF21.600000000000037
aF21.70000000000004
aF21.80000000000004
aF21.90000000000004
aF22.000000000000043
aF22.100000000000044
aF22.200000000000045
aF22.300000000000047
aF22.40000000000005
aF22.50000000000005
aF22.60000000000005
aF22.700000000000053
aF22.800000000000054
aF22.900000000000055
aF23.000000000000057
aF23.10000000000006
aF23.20000000000006
aF23.30000000000006
aF23.400000000000063
aF23.500000000000064
aF23.600000000000065
aF23.700000000000067
aF23.800000000000068
aF23.90000000000007
aF24.00000000000007
aF24.100000000000072
aF24.200000000000074
aF24.300000000000075
aF24.400000000000077
aF24.500000000000078
aF24.60000000000008
aF24.70000000000008
aF24.800000000000082
aF24.900000000000084
aF25.000000000000085
aF25.100000000000087
aF25.200000000000088
aF25.30000000000009
aF25.40000000000009
aF25.500000000000092
aF25.600000000000094
aF25.700000000000095
aF25.800000000000097
aF25.900000000000098
aF26.0000000000001
aF26.1000000000001
aF26.200000000000102
aF26.300000000000104
aF26.400000000000105
aF26.500000000000107
aF26.600000000000108
aF26.70000000000011
aF26.80000000000011
aF26.900000000000112
aF27.000000000000114
aF27.100000000000115
aF27.200000000000117
aF27.300000000000118
aF27.40000000000012
aF27.50000000000012
aF27.600000000000122
aF27.700000000000124
aF27.800000000000125
aF27.900000000000126
aF28.000000000000128
aF28.10000000000013
aF28.20000000000013
aF28.300000000000132
aF28.400000000000134
aF28.500000000000135
aF28.600000000000136
aF28.700000000000138
aF28.80000000000014
aF28.90000000000014
aF29.000000000000142
aF29.100000000000144
aF29.200000000000145
aF29.300000000000146
aF29.400000000000148
aF29.50000000000015
aF29.60000000000015
aF29.700000000000152
aF29.800000000000153
aF29.900000000000155
aF30.000000000000156
aF30.100000000000158
aF30.20000000000016
aF30.30000000000016
aF30.400000000000162
aF30.500000000000163
aF30.600000000000165
aF30.700000000000166
aF30.800000000000168
aF30.90000000000017
aF31.00000000000017
aF31.100000000000172
aF31.200000000000173
aF31.300000000000175
aF31.400000000000176
aF31.500000000000178
aF31.60000000000018
aF31.70000000000018
aF31.800000000000182
aF31.900000000000183
aF32.000000000000185
aF32.100000000000186
aF32.20000000000019
aF32.30000000000019
aF32.40000000000019
aF32.50000000000019
aF32.60000000000019
aF32.700000000000195
aF32.800000000000196
aF32.9000000000002
aF33.0000000000002
aF33.1000000000002
aF33.2000000000002
aF33.3000000000002
aF33.400000000000205
aF33.500000000000206
aF33.60000000000021
aF33.70000000000021
aF33.80000000000021
aF33.90000000000021
aF34.00000000000021
aF34.100000000000215
aF34.200000000000216
aF34.30000000000022
aF34.40000000000022
aF34.50000000000022
aF34.60000000000022
aF34.70000000000022
aF34.800000000000225
aF34.900000000000226
aF35.00000000000023
aF35.10000000000023
aF35.20000000000023
aF35.30000000000023
aF35.40000000000023
aF35.500000000000234
aF35.600000000000236
aF35.70000000000024
aF35.80000000000024
aF35.90000000000024
aF36.00000000000024
aF36.10000000000024
aF36.200000000000244
aF36.300000000000246
aF36.40000000000025
aF36.50000000000025
aF36.60000000000025
aF36.70000000000025
aF36.80000000000025
aF36.900000000000254
aF37.000000000000256
aF37.10000000000026
aF37.20000000000026
aF37.30000000000026
aF37.40000000000026
aF37.50000000000026
aF37.600000000000264
aF37.700000000000266
aF37.80000000000027
aF37.90000000000027
aF38.00000000000027
aF38.10000000000027
aF38.20000000000027
aF38.300000000000274
aF38.400000000000276
aF38.50000000000028
aF38.60000000000028
aF38.70000000000028
aF38.80000000000028
aF38.90000000000028
aF39.000000000000284
aF39.100000000000286
aF39.20000000000029
aF39.30000000000029
aF39.40000000000029
aF39.50000000000029
aF39.60000000000029
aF39.700000000000294
aF39.800000000000296
aF39.9000000000003
aF40.0000000000003
aF40.1000000000003
aF40.2000000000003
aF40.3000000000003
aF40.400000000000304
aF40.500000000000306
aF40.60000000000031
aF40.70000000000031
aF40.80000000000031
aF40.90000000000031
aF41.00000000000031
aF41.100000000000314
aF41.200000000000315
aF41.30000000000032
aF41.40000000000032
aF41.50000000000032
aF41.60000000000032
aF41.70000000000032
aF41.800000000000324
aF41.900000000000325
aF42.00000000000033
aF42.10000000000033
aF42.20000000000033
aF42.30000000000033
aF42.40000000000033
aF42.500000000000334
aF42.600000000000335
aF42.70000000000034
aF42.80000000000034
aF42.90000000000034
aF43.00000000000034
aF43.10000000000034
aF43.200000000000344
aF43.300000000000345
aF43.40000000000035
aF43.50000000000035
aF43.60000000000035
aF43.70000000000035
aF43.80000000000035
aF43.900000000000354
aF44.000000000000355
aF44.10000000000036
aF44.20000000000036
aF44.30000000000036
aF44.40000000000036
aF44.50000000000036
aF44.600000000000364
aF44.700000000000365
aF44.80000000000037
aF44.90000000000037
aF45.00000000000037
aF45.10000000000037
aF45.20000000000037
aF45.300000000000374
aF45.400000000000375
aF45.50000000000038
aF45.60000000000038
aF45.70000000000038
aF45.80000000000038
aF45.90000000000038
aF46.000000000000384
aF46.100000000000385
aF46.20000000000039
aF46.30000000000039
aF46.40000000000039
aF46.50000000000039
aF46.60000000000039
aF46.700000000000394
aF46.800000000000395
aF46.9000000000004
aF47.0000000000004
aF47.1000000000004
aF47.2000000000004
aF47.3000000000004
aF47.400000000000404
aF47.500000000000405
aF47.600000000000406
aF47.70000000000041
aF47.80000000000041
aF47.90000000000041
aF48.00000000000041
aF48.10000000000041
aF48.200000000000415
aF48.300000000000416
aF48.40000000000042
aF48.50000000000042
aF48.60000000000042
aF48.70000000000042
aF48.80000000000042
aF48.900000000000425
aF49.000000000000426
aF49.10000000000043
aF49.20000000000043
aF49.30000000000043
aF49.40000000000043
aF49.50000000000043
aF49.600000000000435
aF49.700000000000436
aF49.80000000000044
aF49.90000000000044
aF50.00000000000044
aF50.10000000000044
aF50.20000000000044
aF50.300000000000445
aF50.400000000000446
aF50.50000000000045
aF50.60000000000045
aF50.70000000000045
aF50.80000000000045
aF50.90000000000045
aF51.000000000000455
aF51.100000000000456
aF51.20000000000046
aF51.30000000000046
aF51.40000000000046
aF51.50000000000046
aF51.60000000000046
aF51.700000000000465
aF51.800000000000466
aF51.90000000000047
aF52.00000000000047
aF52.10000000000047
aF52.20000000000047
aF52.30000000000047
aF52.400000000000475
aF52.500000000000476
aF52.60000000000048
aF52.70000000000048
aF52.80000000000048
aF52.90000000000048
aF53.00000000000048
aF53.100000000000485
aF53.200000000000486
aF53.30000000000049
aF53.40000000000049
aF53.50000000000049
aF53.60000000000049
aF53.70000000000049
aF53.800000000000495
aF53.900000000000496
aF54.0000000000005
aF54.1000000000005
aF54.2000000000005
aF54.3000000000005
aF54.4000000000005
aF54.500000000000504
aF54.600000000000506
aF54.70000000000051
aF54.80000000000051
aF54.90000000000051
aF55.00000000000051
aF55.10000000000051
aF55.200000000000514
aF55.300000000000516
aF55.40000000000052
aF55.50000000000052
aF55.60000000000052
aF55.70000000000052
aF55.80000000000052
aF55.900000000000524
aF56.000000000000526
aF56.10000000000053
aF56.20000000000053
aF56.30000000000053
aF56.40000000000053
aF56.50000000000053
aF56.600000000000534
aF56.700000000000536
aF56.80000000000054
aF56.90000000000054
aF57.00000000000054
aF57.10000000000054
aF57.20000000000054
aF57.300000000000544
aF57.400000000000546
aF57.50000000000055
aF57.60000000000055
aF57.70000000000055
aF57.80000000000055
aF57.90000000000055
aF58.000000000000554
aF58.100000000000556
aF58.20000000000056
aF58.30000000000056
aF58.40000000000056
aF58.50000000000056
aF58.60000000000056
aF58.700000000000564
aF58.800000000000566
aF58.90000000000057
aF59.00000000000057
aF59.10000000000057
aF59.20000000000057
aF59.30000000000057
aF59.400000000000574
aF59.500000000000576
aF59.60000000000058
aF59.70000000000058
aF59.80000000000058
aF59.90000000000058
aF60.00000000000058
aF60.100000000000584
aF60.200000000000585
aF60.30000000000059
aF60.40000000000059
aF60.50000000000059
aF60.60000000000059
aF60.70000000000059
aF60.800000000000594
aF60.900000000000595
aF61.0000000000006
aF61.1000000000006
aF61.2000000000006
aF61.3000000000006
aF61.4000000000006
aF61.500000000000604
aF61.600000000000605
aF61.70000000000061
aF61.80000000000061
aF61.90000000000061
aF62.00000000000061
aF62.10000000000061
aF62.200000000000614
aF62.300000000000615
aF62.40000000000062
aF62.50000000000062
aF62.60000000000062
aF62.70000000000062
aF62.80000000000062
aF62.900000000000624
aF63.000000000000625
aF63.10000000000063
aF63.20000000000063
aF63.30000000000063
aF63.40000000000063
aF63.50000000000063
aF63.600000000000634
aF63.700000000000635
aF63.80000000000064
aF63.90000000000064
aF64.00000000000064
aF64.10000000000063
aF64.20000000000063
aF64.30000000000062
aF64.40000000000062
aF64.50000000000061
aF64.6000000000006
aF64.7000000000006
aF64.8000000000006
aF64.90000000000059
aF65.00000000000058
aF65.10000000000058
aF65.20000000000057
aF65.30000000000057
aF65.40000000000056
aF65.50000000000055
aF65.60000000000055
aF65.70000000000054
aF65.80000000000054
aF65.90000000000053
aF66.00000000000053
aF66.10000000000052
aF66.20000000000051
aF66.30000000000051
aF66.4000000000005
aF66.5000000000005
aF66.60000000000049
aF66.70000000000049
aF66.80000000000048
aF66.90000000000047
aF67.00000000000047
aF67.10000000000046
aF67.20000000000046
aF67.30000000000045
aF67.40000000000045
aF67.50000000000044
aF67.60000000000043
aF67.70000000000043
aF67.80000000000042
aF67.90000000000042
aF68.00000000000041
aF68.1000000000004
aF68.2000000000004
aF68.3000000000004
aF68.40000000000039
aF68.50000000000038
aF68.60000000000038
aF68.70000000000037
aF68.80000000000037
aF68.90000000000036
aF69.00000000000036
aF69.10000000000035
aF69.20000000000034
aF69.30000000000034
aF69.40000000000033
aF69.50000000000033
aF69.60000000000032
aF69.70000000000032
aF69.80000000000031
aF69.9000000000003
aF70.0000000000003
aF70.10000000000029
aF70.20000000000029
aF70.30000000000028
aF70.40000000000028
aF70.50000000000027
aF70.60000000000026
aF70.70000000000026
aF70.80000000000025
aF70.90000000000025
aF71.00000000000024
aF71.10000000000024
aF71.20000000000023
aF71.30000000000022
aF71.40000000000022
aF71.50000000000021
aF71.60000000000021
aF71.7000000000002
aF71.8000000000002
aF71.90000000000019
aF72.00000000000018
aF72.10000000000018
aF72.20000000000017
aF72.30000000000017
aF72.40000000000016
aF72.50000000000016
aF72.60000000000015
aF72.70000000000014
aF72.80000000000014
aF72.90000000000013
aF73.00000000000013
aF73.10000000000012
aF73.20000000000012
aF73.30000000000011
aF73.4000000000001
aF73.5000000000001
aF73.6000000000001
aF73.70000000000009
aF73.80000000000008
aF73.90000000000008
aF74.00000000000007
aF74.10000000000007
aF74.20000000000006
aF74.30000000000005
aF74.40000000000005
aF74.50000000000004
aF74.60000000000004
aF74.70000000000003
aF74.80000000000003
aF74.90000000000002
aF75.00000000000001
aF75.10000000000001
aF75.2
aF75.3
aF75.39999999999999
aF75.49999999999999
aF75.59999999999998
aF75.69999999999997
aF75.79999999999997
aF75.89999999999996
aF75.99999999999996
aF76.09999999999995
aF76.19999999999995
aF76.29999999999994
aF76.39999999999993
aF76.49999999999993
aF76.59999999999992
aF76.69999999999992
aF76.79999999999991
aF76.8999999999999
aF76.9999999999999
aF77.0999999999999
aF77.19999999999989
aF77.29999999999988
aF77.39999999999988
aF77.49999999999987
aF77.59999999999987
aF77.69999999999986
aF77.79999999999986
aF77.89999999999985
aF77.99999999999984
aF78.09999999999984
aF78.19999999999983
aF78.29999999999983
aF78.39999999999982
aF78.49999999999982
aF78.59999999999981
aF78.6999999999998
aF78.7999999999998
aF78.89999999999979
aF78.99999999999979
aF79.09999999999978
aF79.19999999999978
aF79.29999999999977
aF79.39999999999976
aF79.49999999999976
aF79.59999999999975
aF79.69999999999975
aF79.79999999999974
aF79.89999999999974
aF79.99999999999973
aF80.09999999999972
aF80.19999999999972
aF80.29999999999971
aF80.39999999999971
aF80.4999999999997
aF80.5999999999997
aF80.69999999999969
aF80.79999999999968
aF80.89999999999968
aF80.99999999999967
aF81.09999999999967
aF81.19999999999966
aF81.29999999999966
aF81.39999999999965
aF81.49999999999964
aF81.59999999999964
aF81.69999999999963
aF81.79999999999963
aF81.89999999999962
aF81.99999999999962
aF82.09999999999961
aF82.1999999999996
aF82.2999999999996
aF82.3999999999996
aF82.49999999999959
aF82.59999999999958
aF82.69999999999958
aF82.79999999999957
aF82.89999999999957
aF82.99999999999956
aF83.09999999999955
aF83.19999999999955
aF83.29999999999954
aF83.39999999999954
aF83.49999999999953
aF83.59999999999953
aF83.69999999999952
aF83.79999999999951
aF83.89999999999951
aF83.9999999999995
aF84.0999999999995
aF84.19999999999949
aF84.29999999999949
aF84.39999999999948
aF84.49999999999947
aF84.59999999999947
aF84.69999999999946
aF84.79999999999946
aF84.89999999999945
aF84.99999999999945
aF85.09999999999944
aF85.19999999999943
aF85.29999999999943
aF85.39999999999942
aF85.49999999999942
aF85.59999999999941
aF85.6999999999994
aF85.7999999999994
aF85.8999999999994
aF85.99999999999939
aF86.09999999999938
aF86.19999999999938
aF86.29999999999937
aF86.39999999999937
aF86.49999999999936
aF86.59999999999935
aF86.69999999999935
aF86.79999999999934
aF86.89999999999934
aF86.99999999999933
aF87.09999999999933
aF87.19999999999932
aF87.29999999999932
aF87.39999999999931
aF87.4999999999993
aF87.5999999999993
aF87.69999999999929
aF87.79999999999929
aF87.89999999999928
aF87.99999999999928
aF88.09999999999927
aF88.19999999999926
aF88.29999999999926
aF88.39999999999925
aF88.49999999999925
aF88.59999999999924
aF88.69999999999924
aF88.79999999999923
aF88.89999999999922
aF88.99999999999922
aF89.09999999999921
aF89.1999999999992
aF89.2999999999992
aF89.3999999999992
aF89.49999999999919
aF89.59999999999918
aF89.69999999999918
aF89.79999999999917
aF89.89999999999917
aF89.99999999999916
aF90.09999999999916
aF90.19999999999915
aF90.29999999999914
aF90.39999999999914
aF90.49999999999913
aF90.59999999999913
aF90.69999999999912
aF90.79999999999912
aF90.89999999999911
aF90.9999999999991
aF91.0999999999991
aF91.1999999999991
aF91.29999999999909
aF91.39999999999908
aF91.49999999999908
aF91.59999999999907
aF91.69999999999906
aF91.79999999999906
aF91.89999999999905
aF91.99999999999905
aF92.09999999999904
aF92.19999999999904
aF92.29999999999903
aF92.39999999999903
aF92.49999999999902
aF92.59999999999901
aF92.69999999999901
aF92.799999999999
aF92.899999999999
aF92.99999999999899
aF93.09999999999899
aF93.19999999999898
aF93.29999999999897
aF93.39999999999897
aF93.49999999999896
aF93.59999999999896
aF93.69999999999895
aF93.79999999999895
aF93.89999999999894
aF93.99999999999893
aF94.09999999999893
aF94.19999999999892
aF94.29999999999892
aF94.39999999999891
aF94.4999999999989
aF94.5999999999989
aF94.6999999999989
aF94.79999999999889
aF94.89999999999888
aF94.99999999999888
aF95.09999999999887
aF95.19999999999887
aF95.29999999999886
aF95.39999999999885
aF95.49999999999885
aF95.59999999999884
aF95.69999999999884
aF95.79999999999883
aF95.89999999999883
aF95.99999999999882
aF96.09999999999881
aF96.19999999999881
aF96.2999999999988
aF96.3999999999988
aF96.49999999999879
aF96.59999999999879
aF96.69999999999878
aF96.79999999999878
aF96.89999999999877
aF96.99999999999876
aF97.09999999999876
aF97.19999999999875
aF97.29999999999875
aF97.39999999999874
aF97.49999999999874
aF97.59999999999873
aF97.69999999999872
aF97.79999999999872
aF97.89999999999871
aF97.9999999999987
aF98.0999999999987
aF98.1999999999987
aF98.29999999999869
aF98.39999999999868
aF98.49999999999868
aF98.59999999999867
aF98.69999999999867
aF98.79999999999866
aF98.89999999999866
aF98.99999999999865
aF99.09999999999864
aF99.19999999999864
aF99.29999999999863
aF99.39999999999863
aF99.49999999999862
aF99.59999999999862
aF99.69999999999861
aF99.7999999999986
aF99.8999999999986
a.(lp0
F100.0
aF91.0
aF82.9
aF75.61
aF69.049
aF63.14410000000001
aF57.82969000000001
aF53.046721000000005
aF48.7420489
aF44.86784401
aF41.381059609
aF38.2429536481
aF35.41865828329
aF32.876792454961
aF30.589113209464898
aF28.53020188851841
aF26.67718169966657
aF25.00946352969991
aF23.50851717672992
aF22.15766545905693
aF20.941898913151235
aF19.84770902183611
aF18.862938119652497
aF17.97664430768725
aF17.178979876918525
aF16.461081889226673
aF15.814973700304005
aF15.233476330273604
aF14.710128697246244
aF14.23911582752162
aF13.815204244769458
aF13.433683820292512
aF13.09031543826326
aF12.781283894436935
aF12.503155504993241
aF12.252839954493917
aF12.027555959044525
aF11.824800363140072
aF11.642320326826065
aF11.478088294143458
aF11.330279464729111
aF11.1972515182562
aF11.07752636643058
aF10.969773729787523
aF10.87279635680877
aF10.785516721127893
aF10.706965049015103
aF10.636268544113593
aF10.572641689702234
aF10.515377520732011
aF10.46383976865881
aF10.417455791792928
aF10.375710212613635
aF10.33813919135227
aF10.304325272217044
aF10.27389274499534
aF10.246503470495806
aF10.221853123446225
aF10.199667811101602
aF10.179701029991442
aF10.161730926992298
aF10.145557834293069
aF10.131002050863762
aF10.117901845777386
aF10.106111661199646
aF10.095500495079682
aF10.085950445571713
aF10.077355401014541
aF10.069619860913088
aF10.06265787482178
aF10.056392087339601
aF10.05075287860564
aF10.045677590745077
aF10.04110983167057
aF10.036998848503512
aF10.033298963653161
aF10.029969067287844
aF10.02697216055906
aF10.024274944503155
aF10.021847450052839
aF10.019662705047555
aF10.017696434542799
aF10.01592679108852
aF10.014334111979668
aF10.012900700781701
aF10.011610630703531
aF10.010449567633177
aF10.00940461086986
aF10.008464149782874
aF10.007617734804587
aF10.006855961324128
aF10.006170365191714
aF10.005553328672542
aF10.004997995805288
aF10.004498196224759
aF10.004048376602283
aF10.003643538942054
aF10.003279185047848
aF10.002951266543063
aF10.002656139888757
aF10.00239052589988
aF10.002151473309892
aF10.001936325978903
aF10.001742693381013
aF10.001568424042912
aF10.00141158163862
aF10.00127042347476
aF10.001143381127283
aF10.001029043014555
aF10.0009261387131
aF10.00083352484179
aF10.00075017235761
aF10.00067515512185
aF10.000607639609665
aF10.000546875648698
aF10.000492188083829
aF10.000442969275445
aF10.0003986723479
aF10.00035880511311
aF10.0003229246018
aF10.00029063214162
aF10.000261568927458
aF10.000235412034712
aF10.00021187083124
aF10.000190683748116
aF10.000171615373304
aF10.000154453835973
aF10.000139008452376
aF10.000125107607138
aF10.000112596846424
aF10.000101337161782
aF10.000091203445603
aF10.000082083101043
aF10.000073874790939
aF10.000066487311845
aF10.00005983858066
aF10.000053854722594
aF10.000048469250334
aF10.0000436223253
aF10.00003926009277
aF10.000035334083492
aF10.000031800675142
aF10.000028620607628
aF10.000025758546865
aF10.000023182692178
aF10.000020864422961
aF10.000018777980666
aF10.0000169001826
aF10.000015210164339
aF10.000013689147904
aF10.000012320233115
aF10.000011088209803
aF10.000009979388823
aF10.000008981449941
aF10.000008083304946
aF10.000007274974452
aF10.000006547477007
aF10.000005892729305
aF10.000005303456375
aF10.000004773110737
aF10.000004295799663
aF10.000003866219696
aF10.000003479597726
aF10.000003131637953
aF10.000002818474158
aF10.000002536626742
aF10.000002282964067
aF10.000002054667661
aF10.000001849200896
aF10.000001664280806
aF10.000001497852725
aF10.000001348067453
aF10.000001213260708
aF10.000001091934637
aF10.000000982741174
aF10.000000884467056
aF10.00000079602035
aF10.000000716418315
aF10.000000644776483
aF10.000000580298835
aF10.000000522268952
aF10.000000470042057
aF10.000000423037852
aF10.000000380734066
aF10.000000342660659
aF10.000000308394593
aF10.000000277555134
aF10.000000249799621
aF10.000000224819658
aF10.000000202337691
aF10.000000182103923
aF10.000000163893532
aF10.000000147504178
aF10.00000013275376
aF10.000000119478385
aF10.000000107530546
aF10.000000096777491
aF10.000000087099743
aF10.000000078389768
aF10.00000007055079
aF10.000000063495712
aF10.00000005714614
aF10.000000051431526
aF10.000000046288374
aF10.000000041659536
aF10.000000037493583
aF10.000000033744225
aF10.000000030369803
aF10.000000027332822
aF10.00000002459954
aF10.000000022139586
aF10.000000019925627
aF10.000000017933065
aF10.000000016139758
aF10.000000014525781
aF10.000000013073203
aF10.000000011765882
aF10.000000010589295
aF10.000000009530366
aF10.000000008577329
aF10.000000007719596
aF10.000000006947635
aF10.000000006252872
aF10.000000005627586
aF10.000000005064827
aF10.000000004558345
aF10.00000000410251
aF10.000000003692259
aF10.000000003323033
aF10.00000000299073
aF10.000000002691657
aF10.00000000242249
aF10.000000002180242
aF10.000000001962217
aF10.000000001765995
aF10.000000001589395
aF10.000000001430456
aF10.000000001287411
aF10.00000000115867
aF10.000000001042803
aF10.000000000938522
aF10.00000000084467
aF10.000000000760203
aF10.000000000684182
aF10.000000000615763
aF10.000000000554188
aF10.000000000498769
aF10.000000000448892
aF10.000000000404004
aF10.000000000363604
aF10.000000000327244
aF10.00000000029452
aF10.000000000265068
aF10.000000000238561
aF10.000000000214705
aF10.000000000193234
aF10.00000000017391
aF10.00000000015652
aF10.000000000140869
aF10.000000000126782
aF10.000000000114104
aF10.000000000102695
aF10.000000000092426
aF10.000000000083183
aF10.000000000074865
aF10.000000000067377
aF10.00000000006064
aF10.000000000054575
aF10.000000000049118
aF10.000000000044206
aF10.000000000039785
aF10.000000000035806
aF10.000000000032225
aF10.000000000029003
aF10.000000000026102
aF10.000000000023492
aF10.000000000021142
aF10.000000000019028
aF10.000000000017126
aF10.000000000015413
aF10.000000000013872
aF10.000000000012484
aF10.000000000011235
aF10.000000000010111
aF10.0000000000091
aF10.00000000000819
aF10.000000000007372
aF10.000000000006635
aF10.000000000005972
aF10.000000000005375
aF10.000000000004837
aF10.000000000004354
aF10.000000000003919
aF10.000000000003526
aF10.000000000003173
aF10.000000000002855
aF10.000000000002569
aF10.000000000002311
aF10.00000000000208
aF10.000000000001872
aF10.000000000001686
aF10.000000000001517
aF10.000000000001366
aF10.00000000000123
aF10.000000000001107
aF10.000000000000997
aF10.000000000000897
aF10.000000000000806
aF10.000000000000727
aF10.000000000000654
aF10.000000000000588
aF10.00000000000053
aF10.000000000000476
aF10.000000000000428
aF10.000000000000385
aF10.000000000000346
aF10.000000000000313
aF10.00000000000028
aF10.000000000000252
aF10.000000000000227
aF10.000000000000204
aF10.000000000000185
aF10.000000000000167
aF10.000000000000151
aF10.000000000000135
aF10.00000000000012
aF10.000000000000108
aF10.000000000000098
aF10.000000000000089
aF10.00000000000008
aF10.000000000000071
aF10.000000000000064
aF10.000000000000057
aF10.000000000000052
aF10.000000000000046
aF10.00000000000004
aF10.000000000000037
aF10.000000000000034
aF10.00000000000003
aF10.000000000000027
aF10.000000000000025
aF10.000000000000023
aF10.000000000000021
aF10.00000000000002
aF10.000000000000018
aF10.000000000000016
aF10.000000000000014
aF10.000000000000012
aF10.00000000000001
aF10.000000000000009
aF10.000000000000007
aF10.000000000000007
aF10.000000000000007
aF10.000000000000007
aF10.000000000000007
aF10.000000000000007
aF10.000000000000007
aF10.000000000000007
aF10.000000000000007
aF10.000000000000007
aF10.000000000000007
aF10.000000000000007
aF10.000000000000007
aF10.000000000000007
aF10.000000000000007
aF10.000000000000007
aF10.000000000000007
aF10.000000000000007
aF10.000000000000007
aF10.000000000000007
aF10.000000000000007
aF10.000000000000007
aF10.000000000000007
aF10.000000000000007
aF10.000000000000007
aF10.000000000000007
aF10.000000000000007
aF10.000000000000007
aF10.000000000000007
aF10.000000000000007
aF10.000000000000007
aF10.000000000000007
aF10.000000000000007
aF10.000000000000007
aF10.000000000000007
aF10.000000000000007
aF10.000000000000007
aF10.000000000000007
aF10.000000000000007
aF10.000000000000007
aF10.000000000000007
aF10.000000000000007
aF10.000000000000007
aF10.000000000000007
aF10.000000000000007
aF10.000000000000007
aF10.000000000000007
aF10.000000000000007
aF10.000000000000007
aF10.000000000000007
aF10.000000000000007
aF10.000000000000007
aF10.000000000000007
aF10.000000000000007
aF10.000000000000007
aF10.000000000000007
aF10.000000000000007
aF10.000000000000007
aF10.000000000000007
aF10.000000000000007
aF10.000000000000007
aF10.000000000000007
aF10.000000000000007
aF10.000000000000007
aF10.000000000000007
aF10.000000000000007
aF10.000000000000007
aF10.000000000000007
aF10.000000000000007
aF10.000000000000007
aF10.000000000000007
aF10.000000000000007
aF10.000000000000007
aF10.000000000000007
aF10.000000000000007
aF10.000000000000007
aF10.000000000000007
aF10.000000000000007
aF10.000000000000007
aF10.000000000000007
aF10.000000000000007
aF10.000000000000007
aF10.000000000000007
aF10.000000000000007
aF10.000000000000007
aF10.000000000000007
aF10.000000000000007
aF10.000000000000007
aF10.000000000000007
aF10.000000000000007
aF10.000000000000007
aF10.000000000000007
aF10.000000000000007
aF10.000000000000007
aF10.000000000000007
aF10.000000000000007
aF10.000000000000007
aF10.000000000000007
aF10.000000000000007
aF10.000000000000007
aF10.000000000000007
aF10.000000000000007
aF10.000000000000007
aF10.000000000000007
aF10.000000000000007
aF10.000000000000007
aF10.000000000000007
aF10.000000000000007
aF10.000000000000007
aF10.000000000000007
aF10.000000000000007
aF10.000000000000007
aF10.000000000000007
aF10.000000000000007
aF10.000000000000007
aF10.000000000000007
aF10.000000000000007
aF10.000000000000007
aF10.000000000000007
aF10.000000000000007
aF10.000000000000007
aF10.000000000000007
aF10.000000000000007
aF10.000000000000007
aF10.000000000000007
aF10.000000000000007
aF10.000000000000007
aF10.000000000000007
aF10.000000000000007
aF10.000000000000007
aF10.000000000000007
aF10.000000000000007
aF10.000000000000007
aF10.000000000000007
aF10.000000000000007
aF10.000000000000007
aF10.000000000000007
aF10.000000000000007
aF10.000000000000007
aF10.000000000000007
aF10.000000000000007
aF10.000000000000007
aF10.000000000000007
aF10.000000000000007
aF10.000000000000007
aF10.000000000000007
aF10.000000000000007
aF10.000000000000007
aF10.000000000000007
aF10.000000000000007
aF10.000000000000007
aF10.000000000000007
aF10.000000000000007
aF10.000000000000007
aF10.000000000000007
aF10.000000000000007
aF10.000000000000007
aF10.000000000000007
aF10.000000000000007
aF10.000000000000007
aF10.000000000000007
aF10.000000000000007
aF10.000000000000007
aF10.000000000000007
aF10.000000000000007
aF10.000000000000007
aF10.000000000000007
aF10.000000000000007
aF10.000000000000007
aF10.000000000000007
aF10.000000000000007
aF10.000000000000007
aF10.000000000000007
aF10.000000000000007
aF10.000000000000007
aF10.000000000000007
aF10.000000000000007
aF10.000000000000007
aF10.000000000000007
aF10.000000000000007
aF10.000000000000007
aF10.000000000000007
aF10.000000000000007
aF10.000000000000007
aF10.000000000000007
aF10.000000000000007
aF10.000000000000007
aF10.000000000000007
aF10.000000000000007
aF10.000000000000007
aF10.000000000000007
aF10.000000000000007
aF10.000000000000007
aF10.000000000000007
aF10.000000000000007
aF10.000000000000007
aF10.000000000000007
aF10.000000000000007
aF10.000000000000007
aF10.000000000000007
aF10.000000000000007
aF10.000000000000007
aF10.000000000000007
aF10.000000000000007
aF10.000000000000007
aF10.000000000000007
aF10.000000000000007
aF10.000000000000007
aF10.000000000000007
aF10.000000000000007
aF10.000000000000007
aF10.000000000000007
aF10.000000000000007
aF10.000000000000007
aF10.000000000000007
aF10.000000000000007
aF10.000000000000007
aF10.000000000000007
aF10.000000000000007
aF10.000000000000007
aF10.000000000000007
aF10.000000000000007
aF10.000000000000007
aF10.000000000000007
aF10.000000000000007
aF10.000000000000007
aF10.000000000000007
aF10.000000000000007
aF10.000000000000007
aF10.000000000000007
aF10.000000000000007
aF10.000000000000007
aF10.000000000000007
aF10.000000000000007
aF10.000000000000007
aF10.000000000000007
aF10.000000000000007
aF10.000000000000007
aF10.000000000000007
aF10.000000000000007
aF10.000000000000007
aF10.000000000000007
aF10.000000000000007
aF10.000000000000007
aF10.000000000000007
aF10.000000000000007
aF10.000000000000007
aF10.000000000000007
aF10.000000000000007
aF10.000000000000007
aF10.000000000000007
aF10.000000000000007
aF10.000000000000007
aF10.000000000000007
aF10.000000000000007
aF10.000000000000007
aF10.000000000000007
aF10.000000000000007
aF10.000000000000007
aF10.000000000000007
aF10.000000000000007
aF10.000000000000007
aF10.000000000000007
aF10.000000000000007
aF10.000000000000007
aF10.000000000000007
aF10.000000000000007
aF10.000000000000007
aF10.000000000000007
aF10.000000000000007
aF10.000000000000007
aF10.000000000000007
aF10.000000000000007
aF10.000000000000007
aF10.000000000000007
aF10.000000000000007
aF10.000000000000007
aF10.000000000000007
aF10.000000000000007
aF10.000000000000007
aF10.000000000000007
aF10.000000000000007
aF10.000000000000007
aF10.000000000000007
aF10.000000000000007
aF10.000000000000007
aF10.000000000000007
aF10.000000000000007
aF10.000000000000007
aF10.000000000000007
aF10.000000000000007
aF10.000000000000007
aF10.000000000000007
aF10.000000000000007
aF10.000000000000007
aF10.000000000000007
aF10.000000000000007
aF10.000000000000007
aF10.000000000000007
aF10.000000000000007
aF10.000000000000007
aF10.000000000000007
aF10.000000000000007
aF10.000000000000007
aF10.000000000000007
aF10.000000000000007
aF10.000000000000007
aF10.000000000000007
aF10.000000000000007
aF10.000000000000007
aF10.000000000000007
aF10.000000000000007
aF10.000000000000007
aF10.000000000000007
aF10.000000000000007
aF10.000000000000007
aF10.000000000000007
aF10.000000000000007
aF10.000000000000007
aF10.000000000000007
aF10.000000000000007
aF10.000000000000007
aF10.000000000000007
aF10.000000000000007
aF10.000000000000007
aF10.000000000000007
aF10.000000000000007
aF10.000000000000007
aF10.000000000000007
aF10.000000000000007
aF10.000000000000007
aF10.000000000000007
aF10.000000000000007
aF10.000000000000007
aF10.000000000000007
aF10.000000000000007
aF10.000000000000007
aF10.000000000000007
aF10.000000000000007
aF10.000000000000007
aF10.000000000000007
aF10.000000000000007
aF10.000000000000007
aF10.000000000000007
aF10.000000000000007
aF10.000000000000007
aF10.000000000000007
aF10.000000000000007
aF10.000000000000007
aF10.000000000000007
aF10.000000000000007
aF10.000000000000007
aF10.000000000000007
aF10.000000000000007
aF10.000000000000007
aF10.000000000000007
aF10.000000000000007
aF10.000000000000007
aF10.000000000000007
aF10.000000000000007
aF10.000000000000007
aF10.000000000000007
aF10.000000000000007
aF10.000000000000007
aF10.000000000000007
aF10.000000000000007
aF10.000000000000007
aF10.000000000000007
aF10.000000000000007
aF10.000000000000007
aF10.000000000000007
aF10.000000000000007
aF10.000000000000007
aF10.000000000000007
aF10.000000000000007
aF10.000000000000007
aF10.000000000000007
aF10.000000000000007
aF10.000000000000007
aF10.000000000000007
aF10.000000000000007
aF10.000000000000007
aF10.000000000000007
aF10.000000000000007
aF10.000000000000007
aF10.000000000000007
aF10.000000000000007
aF10.000000000000007
aF10.000000000000007
aF10.000000000000007
aF10.000000000000007
aF10.000000000000007
aF10.000000000000007
aF10.000000000000007
aF10.000000000000007
aF10.000000000000007
aF10.000000000000007
aF10.000000000000007
aF10.000000000000007
aF10.000000000000007
aF10.000000000000007
aF10.000000000000007
aF10.000000000000007
aF10.000000000000007
aF10.000000000000007
aF10.000000000000007
aF10.000000000000007
aF10.000000000000007
aF10.000000000000007
aF10.000000000000007
aF10.000000000000007
aF10.000000000000007
aF10.000000000000007
aF10.000000000000007
aF10.000000000000007
aF10.000000000000007
aF10.000000000000007
aF10.000000000000007
aF10.000000000000007
aF10.000000000000007
aF10.000000000000007
aF10.000000000000007
aF10.000000000000007
aF10.000000000000007
aF10.000000000000007
aF10.000000000000007
aF10.000000000000007
aF10.000000000000007
aF10.000000000000007
aF10.000000000000007
aF10.000000000000007
aF10.000000000000007
aF10.000000000000007
aF10.000000000000007
aF10.000000000000007
aF10.000000000000007
aF10.000000000000007
aF10.000000000000007
aF10.000000000000007
aF10.000000000000007
aF10.000000000000007
aF10.000000000000007
aF10.000000000000007
aF10.000000000000007
aF10.000000000000007
aF10.000000000000007
aF10.000000000000007
aF10.000000000000007
aF10.000000000000007
aF10.000000000000007
aF10.000000000000007
aF10.000000000000007
aF10.000000000000007
aF10.000000000000007
aF10.000000000000007
aF10.000000000000007
aF10.000000000000007
aF10.000000000000007
aF10.000000000000007
aF10.000000000000007
aF10.000000000000007
aF10.000000000000007
aF10.000000000000007
aF10.000000000000007
aF10.000000000000007
aF10.000000000000007
aF10.000000000000007
aF10.000000000000007
aF10.000000000000007
aF10.000000000000007
aF10.000000000000007
aF10.000000000000007
aF10.000000000000007
aF10.000000000000007
aF10.000000000000007
aF10.000000000000007
aF10.000000000000007
aF10.000000000000007
aF10.000000000000007
aF10.000000000000007
aF10.000000000000007
aF10.000000000000007
aF10.000000000000007
aF10.000000000000007
aF10.000000000000007
aF10.000000000000007
aF10.000000000000007
aF10.000000000000007
aF10.000000000000007
aF10.000000000000007
aF10.000000000000007
aF10.000000000000007
aF10.000000000000007
aF10.000000000000007
aF10.000000000000007
aF10.000000000000007
aF10.000000000000007
aF10.000000000000007
aF10.000000000000007
aF10.000000000000007
aF10.000000000000007
aF10.000000000000007
aF10.000000000000007
aF10.000000000000007
aF10.000000000000007
aF10.000000000000007
aF10.000000000000007
aF10.000000000000007
aF10.000000000000007
aF10.000000000000007
aF10.000000000000007
aF10.000000000000007
aF10.000000000000007
aF10.000000000000007
aF10.000000000000007
aF10.000000000000007
aF10.000000000000007
aF10.000000000000007
aF10.000000000000007
aF10.000000000000007
aF10.000000000000007
aF10.000000000000007
aF10.000000000000007
aF10.000000000000007
aF10.000000000000007
aF10.000000000000007
aF10.000000000000007
aF10.000000000000007
aF10.000000000000007
aF10.000000000000007
aF10.000000000000007
aF10.000000000000007
aF10.000000000000007
aF10.000000000000007
aF10.000000000000007
aF10.000000000000007
aF10.000000000000007
aF10.000000000000007
aF10.000000000000007
aF10.000000000000007
aF10.000000000000007
aF10.000000000000007
aF10.000000000000007
aF10.000000000000007
aF10.000000000000007
aF10.000000000000007
aF10.000000000000007
aF10.000000000000007
aF10.000000000000007
aF10.000000000000007
aF10.000000000000007
aF10.000000000000007
aF10.000000000000007
aF10.000000000000007
aF10.000000000000007
aF10.000000000000007
aF10.000000000000007
aF10.000000000000007
aF10.000000000000007
aF10.000000000000007
aF10.000000000000007
aF10.000000000000007
aF10.000000000000007
aF10.000000000000007
aF10.000000000000007
aF10.000000000000007
aF10.000000000000007
aF10.000000000000007
aF10.000000000000007
aF10.000000000000007
aF10.000000000000007
aF10.000000000000007
aF10.000000000000007
aF10.000000000000007
aF10.000000000000007
aF10.000000000000007
aF10.000000000000007
aF10.000000000000007
aF10.000000000000007
aF10.000000000000007
aF10.000000000000007
aF10.000000000000007
aF10.000000000000007
aF10.000000000000007
aF10.000000000000007
aF10.000000000000007
aF10.000000000000007
aF10.000000000000007
aF10.000000000000007
aF10.000000000000007
aF10.000000000000007
aF10.000000000000007
aF10.000000000000007
aF10.000000000000007
aF10.000000000000007
aF10.000000000000007
aF10.000000000000007
aF10.000000000000007
aF10.000000000000007
aF10.000000000000007
aF10.000000000000007
aF10.000000000000007
aF10.000000000000007
aF10.000000000000007
aF10.000000000000007
aF10.000000000000007
aF10.000000000000007
aF10.000000000000007
aF10.000000000000007
aF10.000000000000007
aF10.000000000000007
aF10.000000000000007
aF10.000000000000007
aF10.000000000000007
aF10.000000000000007
aF10.000000000000007
aF10.000000000000007
aF10.000000000000007
aF10.000000000000007
aF10.000000000000007
aF10.000000000000007
aF10.000000000000007
aF10.000000000000007
aF10.000000000000007
aF10.000000000000007
aF10.000000000000007
aF10.000000000000007
aF10.000000000000007
aF10.000000000000007
aF10.000000000000007
aF10.000000000000007
aF10.000000000000007
aF10.000000000000007
aF10.000000000000007
aF10.000000000000007
aF10.000000000000007
aF10.000000000000007
aF10.000000000000007
aF10.000000000000007
aF10.000000000000007
aF10.000000000000007
aF10.000000000000007
aF10.000000000000007
aF10.000000000000007
aF10.000000000000007
aF10.000000000000007
aF10.000000000000007
aF10.000000000000007
aF10.000000000000007
aF10.000000000000007
a.